; Function Attrs: mustprogress nofree norecurse nosync nounwind memory(readwrite, inaccessiblemem: none) uwtable
define hidden void @_ZN15G1CollectionSet24prepare_optional_regionsEP31G1CollectionCandidateRegionList(ptr nocapture noundef nonnull readonly align 8 dereferenceable(160) %0, ptr nocapture noundef readonly %1) local_unnamed_addr #8 align 2 {
  %3 = load i32, ptr %1, align 4
  %.not11 = icmp eq i32 %3, 0
  br i1 %.not11, label %._crit_edge, label %.lr.ph

.lr.ph:                                           ; preds = %2
  %4 = getelementptr inbounds i8, ptr %1, i64 8
  %5 = zext i32 %3 to i64
  br label %6

6:                                                ; preds = %.lr.ph, %6
  %indvars.iv = phi i64 [ 0, %.lr.ph ], [ %indvars.iv.next, %6 ]
  %indvars14 = trunc i64 %indvars.iv to i32
  %7 = load ptr, ptr %4, align 8
  %8 = getelementptr inbounds ptr, ptr %7, i64 %indvars.iv
  %9 = load ptr, ptr %8, align 8
  %10 = load ptr, ptr %0, align 8
  %11 = getelementptr inbounds i8, ptr %9, i64 48
  %12 = load i32, ptr %11, align 8
  %13 = zext i32 %12 to i64
  %14 = getelementptr inbounds i8, ptr %9, i64 40
  %15 = load ptr, ptr %14, align 8
  %16 = getelementptr inbounds i8, ptr %15, i64 80
  %17 = load i32, ptr %16, align 8
  %18 = icmp ne i32 %17, 0
  %.sroa.0.0.insert.ext.i.i = zext i1 %18 to i24
  %.sroa.0.0.insert.insert.i.i = or disjoint i24 %.sroa.0.0.insert.ext.i.i, 64512
  %19 = getelementptr inbounds i8, ptr %10, i64 1448
  %20 = load ptr, ptr %19, align 8
  %21 = getelementptr inbounds %struct.G1HeapRegionAttr, ptr %20, i64 %13
  store i24 %.sroa.0.0.insert.insert.i.i, ptr %21, align 1
  %indvars.iv.next = add nuw nsw i64 %indvars.iv, 1
  %22 = getelementptr inbounds i8, ptr %9, i64 64
  store i32 %indvars14, ptr %22, align 8
  %.not = icmp eq i64 %indvars.iv.next, %5
  br i1 %.not, label %._crit_edge, label %6

._crit_edge:                                      ; preds = %6, %2
  ret void
}